target datalayout = "e-m:e-p270:32:32-p271:32:32-p272:64:64-i64:64-i128:128-f80:128-n8:16:32:64-S128"
target triple = "x86_64-pc-linux-gnu"

%struct.Agobj_s = type { %struct.Agtag_s, ptr }
%struct.Agtag_s = type { i32, i64 }
%struct.Agrec_s = type { ptr, ptr }
%struct.boxf = type { %struct.pointf_s, %struct.pointf_s }
%struct.pointf_s = type { double, double }
%struct.Agnodeinfo_t = type { %struct.Agrec_s, ptr, ptr, %struct.pointf_s, double, double, %struct.boxf, double, double, double, double, double, ptr, ptr, ptr, i8, i8, i8, i8, i32, i32, i32, ptr, double, i8, i8, ptr, ptr, i8, i64, i8, i8, i8, ptr, ptr, %struct.elist, %struct.elist, %struct.elist, %struct.elist, %struct.elist, ptr, i32, ptr, i32, i32, double, %struct.elist, %struct.elist, %struct.elist, %struct.elist, ptr, i32, i32, i32, [1 x double] }
%struct.elist = type { ptr, i64 }

@Ndim = external global i16, align 2
@N_pos = internal global ptr null, align 8
@.str.17 = private unnamed_addr constant [48 x i8] c"node positions are ignored unless start=random\0A\00", align 1

; Function Attrs: nounwind uwtable
define internal void @initRegular(ptr noundef %0, i32 noundef %1) #0 {
  %3 = alloca ptr, align 8
  %4 = alloca i32, align 4
  %5 = alloca double, align 8
  %6 = alloca double, align 8
  %7 = alloca ptr, align 8
  store ptr %0, ptr %3, align 8, !tbaa !57
  store i32 %1, ptr %4, align 4, !tbaa !47
  call void @llvm.lifetime.start.p0(i64 8, ptr %5) #15
  call void @llvm.lifetime.start.p0(i64 8, ptr %6) #15
  call void @llvm.lifetime.start.p0(i64 8, ptr %7) #15
  store double 0.000000e+00, ptr %5, align 8, !tbaa !53
  %8 = load i32, ptr %4, align 4, !tbaa !47
  %9 = sitofp i32 %8 to double
  %10 = fdiv double 0x401921FB54442D18, %9
  store double %10, ptr %6, align 8, !tbaa !53
  %11 = load ptr, ptr %3, align 8, !tbaa !57
  %12 = call ptr @agfstnode(ptr noundef %11)
  store ptr %12, ptr %7, align 8, !tbaa !3
  br label %13

13:                                               ; preds = %55, %2
  %14 = load ptr, ptr %7, align 8, !tbaa !3
  %15 = icmp ne ptr %14, null
  br i1 %15, label %16, label %59

16:                                               ; preds = %13
  %17 = load i32, ptr %4, align 4, !tbaa !47
  %18 = sitofp i32 %17 to double
  %19 = fmul double %18, 1.000000e+00
  %20 = load double, ptr %5, align 8, !tbaa !53
  %21 = call double @cos(double noundef %20) #15, !tbaa !47
  %22 = fmul double %19, %21
  %23 = load ptr, ptr %7, align 8, !tbaa !3
  %24 = getelementptr inbounds nuw %struct.Agobj_s, ptr %23, i32 0, i32 1
  %25 = load ptr, ptr %24, align 8, !tbaa !8
  %26 = getelementptr inbounds nuw %struct.Agnodeinfo_t, ptr %25, i32 0, i32 22
  %27 = load ptr, ptr %26, align 8, !tbaa !33
  %28 = getelementptr inbounds double, ptr %27, i64 0
  store double %22, ptr %28, align 8, !tbaa !53
  %29 = load i32, ptr %4, align 4, !tbaa !47
  %30 = sitofp i32 %29 to double
  %31 = fmul double %30, 1.000000e+00
  %32 = load double, ptr %5, align 8, !tbaa !53
  %33 = call double @sin(double noundef %32) #15, !tbaa !47
  %34 = fmul double %31, %33
  %35 = load ptr, ptr %7, align 8, !tbaa !3
  %36 = getelementptr inbounds nuw %struct.Agobj_s, ptr %35, i32 0, i32 1
  %37 = load ptr, ptr %36, align 8, !tbaa !8
  %38 = getelementptr inbounds nuw %struct.Agnodeinfo_t, ptr %37, i32 0, i32 22
  %39 = load ptr, ptr %38, align 8, !tbaa !33
  %40 = getelementptr inbounds double, ptr %39, i64 1
  store double %34, ptr %40, align 8, !tbaa !53
  %41 = load ptr, ptr %7, align 8, !tbaa !3
  %42 = getelementptr inbounds nuw %struct.Agobj_s, ptr %41, i32 0, i32 1
  %43 = load ptr, ptr %42, align 8, !tbaa !8
  %44 = getelementptr inbounds nuw %struct.Agnodeinfo_t, ptr %43, i32 0, i32 18
  store i8 1, ptr %44, align 1, !tbaa !52
  %45 = load double, ptr %5, align 8, !tbaa !53
  %46 = load double, ptr %6, align 8, !tbaa !53
  %47 = fadd double %45, %46
  store double %47, ptr %5, align 8, !tbaa !53
  %48 = load i16, ptr @Ndim, align 2, !tbaa !51
  %49 = zext i16 %48 to i32
  %50 = icmp sgt i32 %49, 2
  br i1 %50, label %51, label %54

51:                                               ; preds = %16
  %52 = load ptr, ptr %7, align 8, !tbaa !3
  %53 = load i32, ptr %4, align 4, !tbaa !47
  call void @jitter3d(ptr noundef %52, i32 noundef %53)
  br label %54

54:                                               ; preds = %51, %16
  br label %55

55:                                               ; preds = %54
  %56 = load ptr, ptr %3, align 8, !tbaa !57
  %57 = load ptr, ptr %7, align 8, !tbaa !3
  %58 = call ptr @agnxtnode(ptr noundef %56, ptr noundef %57)
  store ptr %58, ptr %7, align 8, !tbaa !3
  br label %13, !llvm.loop !101

59:                                               ; preds = %13
  call void @llvm.lifetime.end.p0(i64 8, ptr %7) #15
  call void @llvm.lifetime.end.p0(i64 8, ptr %6) #15
  call void @llvm.lifetime.end.p0(i64 8, ptr %5) #15
  ret void
}

; Function Attrs: nounwind uwtable
define i32 @checkStart(ptr noundef %0, i32 noundef %1, i32 noundef %2) #0 {
  %4 = alloca ptr, align 8
  %5 = alloca i32, align 4
  %6 = alloca i32, align 4
  %7 = alloca i64, align 8
  %8 = alloca i32, align 4
  store ptr %0, ptr %4, align 8, !tbaa !57
  store i32 %1, ptr %5, align 4, !tbaa !47
  store i32 %2, ptr %6, align 4, !tbaa !47
  call void @llvm.lifetime.start.p0(i64 8, ptr %7) #15
  call void @llvm.lifetime.start.p0(i64 4, ptr %8) #15
  store i64 1, ptr %7, align 8, !tbaa !41
  %9 = load ptr, ptr %4, align 8, !tbaa !57
  %10 = load i32, ptr %6, align 4, !tbaa !47
  %11 = call i32 @setSeed(ptr noundef %9, i32 noundef %10, ptr noundef %7)
  store i32 %11, ptr %8, align 4, !tbaa !47
  %12 = load ptr, ptr @N_pos, align 8, !tbaa !45
  %13 = icmp ne ptr %12, null
  br i1 %13, label %14, label %18

14:                                               ; preds = %3
  %15 = load i32, ptr %8, align 4, !tbaa !47
  %16 = icmp ne i32 %15, 2
  br i1 %16, label %17, label %18

17:                                               ; preds = %14
  call void (ptr, ...) @agwarningf(ptr noundef @.str.17)
  br label %18

18:                                               ; preds = %17, %14, %3
  %19 = load i32, ptr %8, align 4, !tbaa !47
  %20 = icmp eq i32 %19, 1
  br i1 %20, label %21, label %24

21:                                               ; preds = %18
  %22 = load ptr, ptr %4, align 8, !tbaa !57
  %23 = load i32, ptr %5, align 4, !tbaa !47
  call void @initRegular(ptr noundef %22, i32 noundef %23)
  br label %24

24:                                               ; preds = %21, %18
  %25 = load i64, ptr %7, align 8, !tbaa !41
  call void @srand48(i64 noundef %25) #15
  %26 = load i32, ptr %8, align 4, !tbaa !47
  call void @llvm.lifetime.end.p0(i64 4, ptr %8) #15
  call void @llvm.lifetime.end.p0(i64 8, ptr %7) #15
  ret i32 %26
}