; Function Attrs: nounwind uwtable
define noundef i32 @checkStart(ptr noundef %0, i32 noundef %1, i32 noundef %2) local_unnamed_addr #0 {
  %4 = alloca i64, align 8
  call void @llvm.lifetime.start.p0(i64 8, ptr nonnull %4) #22
  store i64 1, ptr %4, align 8, !tbaa !104
  %5 = call i32 @setSeed(ptr noundef %0, i32 noundef %2, ptr noundef nonnull %4)
  %6 = load ptr, ptr @N_pos, align 8, !tbaa !49
  %7 = icmp ne ptr %6, null
  %8 = icmp ne i32 %5, 2
  %or.cond = and i1 %8, %7
  br i1 %or.cond, label %9, label %10

9:                                                ; preds = %3
  tail call void (ptr, ...) @agwarningf(ptr noundef nonnull @.str.17) #22
  br label %10

10:                                               ; preds = %9, %3
  %11 = icmp eq i32 %5, 1
  br i1 %11, label %12, label %initRegular.exit

12:                                               ; preds = %10
  %13 = sitofp i32 %1 to double
  %14 = fdiv double 0x401921FB54442D18, %13
  %15 = tail call ptr @agfstnode(ptr noundef %0) #22
  %.not16.i = icmp eq ptr %15, null
  br i1 %.not16.i, label %initRegular.exit, label %.lr.ph.i

.lr.ph.i:                                         ; preds = %12, %30
  %.018.i = phi ptr [ %31, %30 ], [ %15, %12 ]
  %.01517.i = phi double [ %26, %30 ], [ 0.000000e+00, %12 ]
  %16 = tail call double @cos(double noundef %.01517.i) #22, !tbaa !53
  %17 = fmul double %16, %13
  %18 = getelementptr inbounds nuw i8, ptr %.018.i, i64 16
  %19 = load ptr, ptr %18, align 8, !tbaa !3
  %20 = getelementptr inbounds nuw i8, ptr %19, i64 176
  %21 = load ptr, ptr %20, align 8, !tbaa !34
  store double %17, ptr %21, align 8, !tbaa !45
  %22 = tail call double @sin(double noundef %.01517.i) #22, !tbaa !53
  %23 = fmul double %22, %13
  %24 = getelementptr inbounds nuw i8, ptr %21, i64 8
  store double %23, ptr %24, align 8, !tbaa !45
  %25 = getelementptr inbounds nuw i8, ptr %19, i64 163
  store i8 1, ptr %25, align 1, !tbaa !44
  %26 = fadd double %14, %.01517.i
  %27 = load i16, ptr @Ndim, align 2, !tbaa !43
  %28 = icmp ugt i16 %27, 2
  br i1 %28, label %29, label %30

29:                                               ; preds = %.lr.ph.i
  tail call void @jitter3d(ptr noundef nonnull %.018.i, i32 noundef %1) #22
  br label %30

30:                                               ; preds = %29, %.lr.ph.i
  %31 = tail call ptr @agnxtnode(ptr noundef %0, ptr noundef nonnull %.018.i) #22
  %.not.i = icmp eq ptr %31, null
  br i1 %.not.i, label %initRegular.exit, label %.lr.ph.i, !llvm.loop !105

initRegular.exit:                                 ; preds = %30, %12, %10
  %32 = load i64, ptr %4, align 8, !tbaa !104
  tail call void @srand48(i64 noundef %32) #22
  call void @llvm.lifetime.end.p0(i64 8, ptr nonnull %4) #22
  ret i32 %5
}